target datalayout = "e-m:e-p270:32:32-p271:32:32-p272:64:64-i64:64-i128:128-f80:128-n8:16:32:64-S128"
target triple = "x86_64-pc-linux-gnu"

%union.pthread_mutex_t = type { %struct.__pthread_mutex_s }
%struct.__pthread_mutex_s = type { i32, i32, i32, i32, i32, i16, i16, %struct.__pthread_internal_list }
%struct.__pthread_internal_list = type { ptr, ptr }
%struct.hostlist = type { i32, %union.pthread_mutex_t, i32, i32, i32, ptr, ptr }

@.str.3 = private unnamed_addr constant [29 x i8] c"%s: pthread_mutex_lock(): %m\00", align 1
@.str.4 = private unnamed_addr constant [31 x i8] c"%s: pthread_mutex_unlock(): %m\00", align 1
@__func__.hostlist_push_list = private unnamed_addr constant [19 x i8] c"hostlist_push_list\00", align 1

; Function Attrs: nounwind uwtable
define dso_local i32 @hostlist_push_list(ptr noundef %0, ptr noundef %1) #0 {
  %3 = alloca i32, align 4
  %4 = alloca ptr, align 8
  %5 = alloca ptr, align 8
  %6 = alloca i32, align 4
  %7 = alloca i32, align 4
  %8 = alloca i32, align 4
  %9 = alloca i32, align 4
  %10 = alloca i32, align 4
  store ptr %0, ptr %4, align 8
  store ptr %1, ptr %5, align 8
  call void @llvm.lifetime.start.p0(i64 4, ptr %6) #13
  call void @llvm.lifetime.start.p0(i64 4, ptr %7) #13
  store i32 0, ptr %7, align 4
  %11 = load ptr, ptr %5, align 8
  %12 = icmp ne ptr %11, null
  br i1 %12, label %13, label %16

13:                                               ; preds = %2
  %14 = load ptr, ptr %4, align 8
  %15 = icmp ne ptr %14, null
  br i1 %15, label %17, label %16

16:                                               ; preds = %13, %2
  store i32 0, ptr %3, align 4
  store i32 1, ptr %8, align 4
  br label %71

17:                                               ; preds = %13
  br label %18

18:                                               ; preds = %17
  br label %19

19:                                               ; preds = %18
  call void @llvm.lifetime.start.p0(i64 4, ptr %9) #13
  %20 = load ptr, ptr %5, align 8
  %21 = getelementptr inbounds nuw %struct.hostlist, ptr %20, i32 0, i32 1
  %22 = call i32 @pthread_mutex_lock(ptr noundef %21) #13
  store i32 %22, ptr %9, align 4
  %23 = load i32, ptr %9, align 4
  %24 = icmp ne i32 %23, 0
  br i1 %24, label %25, label %28

25:                                               ; preds = %19
  %26 = load i32, ptr %9, align 4
  %27 = call ptr @__errno_location() #14
  store i32 %26, ptr %27, align 4
  call void (ptr, ...) @fatal_abort(ptr noundef @.str.3, ptr noundef @__func__.hostlist_push_list) #15
  unreachable

28:                                               ; preds = %19
  call void @llvm.lifetime.end.p0(i64 4, ptr %9) #13
  br label %29

29:                                               ; preds = %28
  br label %30

30:                                               ; preds = %29
  br label %31

31:                                               ; preds = %30
  br label %32

32:                                               ; preds = %31
  store i32 0, ptr %6, align 4
  br label %33

33:                                               ; preds = %51, %32
  %34 = load i32, ptr %6, align 4
  %35 = load ptr, ptr %5, align 8
  %36 = getelementptr inbounds nuw %struct.hostlist, ptr %35, i32 0, i32 3
  %37 = load i32, ptr %36, align 4
  %38 = icmp slt i32 %34, %37
  br i1 %38, label %39, label %54

39:                                               ; preds = %33
  %40 = load ptr, ptr %4, align 8
  %41 = load ptr, ptr %5, align 8
  %42 = getelementptr inbounds nuw %struct.hostlist, ptr %41, i32 0, i32 5
  %43 = load ptr, ptr %42, align 8
  %44 = load i32, ptr %6, align 4
  %45 = sext i32 %44 to i64
  %46 = getelementptr inbounds ptr, ptr %43, i64 %45
  %47 = load ptr, ptr %46, align 8
  %48 = call i32 @hostlist_push_range(ptr noundef %40, ptr noundef %47)
  %49 = load i32, ptr %7, align 4
  %50 = add nsw i32 %49, %48
  store i32 %50, ptr %7, align 4
  br label %51

51:                                               ; preds = %39
  %52 = load i32, ptr %6, align 4
  %53 = add nsw i32 %52, 1
  store i32 %53, ptr %6, align 4
  br label %33, !llvm.loop !20

54:                                               ; preds = %33
  br label %55

55:                                               ; preds = %54
  br label %56

56:                                               ; preds = %55
  call void @llvm.lifetime.start.p0(i64 4, ptr %10) #13
  %57 = load ptr, ptr %5, align 8
  %58 = getelementptr inbounds nuw %struct.hostlist, ptr %57, i32 0, i32 1
  %59 = call i32 @pthread_mutex_unlock(ptr noundef %58) #13
  store i32 %59, ptr %10, align 4
  %60 = load i32, ptr %10, align 4
  %61 = icmp ne i32 %60, 0
  br i1 %61, label %62, label %65

62:                                               ; preds = %56
  %63 = load i32, ptr %10, align 4
  %64 = call ptr @__errno_location() #14
  store i32 %63, ptr %64, align 4
  call void (ptr, ...) @fatal_abort(ptr noundef @.str.4, ptr noundef @__func__.hostlist_push_list) #15
  unreachable

65:                                               ; preds = %56
  call void @llvm.lifetime.end.p0(i64 4, ptr %10) #13
  br label %66

66:                                               ; preds = %65
  br label %67

67:                                               ; preds = %66
  br label %68

68:                                               ; preds = %67
  br label %69

69:                                               ; preds = %68
  %70 = load i32, ptr %7, align 4
  store i32 %70, ptr %3, align 4
  store i32 1, ptr %8, align 4
  br label %71

71:                                               ; preds = %69, %16
  call void @llvm.lifetime.end.p0(i64 4, ptr %7) #13
  call void @llvm.lifetime.end.p0(i64 4, ptr %6) #13
  %72 = load i32, ptr %3, align 4
  ret i32 %72
}