; Function Attrs: nounwind uwtable
define dso_local i32 @hostlist_push_list(ptr noundef %0, ptr noundef %1) #0 {
  %3 = icmp ne ptr %1, null
  %4 = icmp ne ptr %0, null
  %or.cond = and i1 %4, %3
  br i1 %or.cond, label %5, label %26

5:                                                ; preds = %2
  %6 = getelementptr inbounds nuw i8, ptr %1, i64 8
  %7 = tail call i32 @pthread_mutex_lock(ptr noundef nonnull %6) #22
  %.not = icmp eq i32 %7, 0
  br i1 %.not, label %.preheader, label %12

.preheader:                                       ; preds = %5
  %8 = getelementptr inbounds nuw i8, ptr %1, i64 52
  %9 = load i32, ptr %8, align 4
  %10 = icmp sgt i32 %9, 0
  br i1 %10, label %.lr.ph, label %._crit_edge

.lr.ph:                                           ; preds = %.preheader
  %11 = getelementptr inbounds nuw i8, ptr %1, i64 64
  br label %14

12:                                               ; preds = %5
  %13 = tail call ptr @__errno_location() #24
  store i32 %7, ptr %13, align 4
  tail call void (ptr, ...) @fatal_abort(ptr noundef nonnull @.str.3, ptr noundef nonnull @__func__.hostlist_push_list) #25
  unreachable

14:                                               ; preds = %.lr.ph, %14
  %indvars.iv = phi i64 [ 0, %.lr.ph ], [ %indvars.iv.next, %14 ]
  %.01824 = phi i32 [ 0, %.lr.ph ], [ %19, %14 ]
  %15 = load ptr, ptr %11, align 8
  %16 = getelementptr inbounds nuw ptr, ptr %15, i64 %indvars.iv
  %17 = load ptr, ptr %16, align 8
  %18 = tail call fastcc i32 @hostlist_push_range(ptr noundef nonnull %0, ptr noundef %17)
  %19 = add nsw i32 %18, %.01824
  %indvars.iv.next = add nuw nsw i64 %indvars.iv, 1
  %20 = load i32, ptr %8, align 4
  %21 = sext i32 %20 to i64
  %22 = icmp slt i64 %indvars.iv.next, %21
  br i1 %22, label %14, label %._crit_edge, !llvm.loop !25

._crit_edge:                                      ; preds = %14, %.preheader
  %.018.lcssa = phi i32 [ 0, %.preheader ], [ %19, %14 ]
  %23 = tail call i32 @pthread_mutex_unlock(ptr noundef nonnull %6) #22
  %.not23 = icmp eq i32 %23, 0
  br i1 %.not23, label %26, label %24

24:                                               ; preds = %._crit_edge
  %25 = tail call ptr @__errno_location() #24
  store i32 %23, ptr %25, align 4
  tail call void (ptr, ...) @fatal_abort(ptr noundef nonnull @.str.4, ptr noundef nonnull @__func__.hostlist_push_list) #25
  unreachable

26:                                               ; preds = %._crit_edge, %2
  %.0 = phi i32 [ 0, %2 ], [ %.018.lcssa, %._crit_edge ]
  ret i32 %.0
}